; Function Attrs: nounwind uwtable
define internal void @keyobject_dealloc(ptr noundef %0) #0 {
  %2 = getelementptr i8, ptr %0, i64 8
  %.val = load ptr, ptr %2, align 8, !tbaa !113
  tail call void @PyObject_GC_UnTrack(ptr noundef %0) #9
  %3 = getelementptr inbounds nuw i8, ptr %0, i64 16
  %4 = load ptr, ptr %3, align 8, !tbaa !20
  %.not.i6 = icmp eq ptr %4, null
  br i1 %.not.i6, label %Py_DECREF.exit13.i, label %5

5:                                                ; preds = %1
  store ptr null, ptr %3, align 8, !tbaa !20
  %6 = load i32, ptr %4, align 8, !tbaa !21
  %.not.i12.i = icmp sgt i32 %6, -1
  br i1 %.not.i12.i, label %7, label %Py_DECREF.exit13.i

7:                                                ; preds = %5
  %8 = add nsw i32 %6, -1
  store i32 %8, ptr %4, align 8, !tbaa !21
  %9 = icmp eq i32 %8, 0
  br i1 %9, label %10, label %Py_DECREF.exit13.i

10:                                               ; preds = %7
  tail call void @_Py_Dealloc(ptr noundef nonnull %4) #9
  br label %Py_DECREF.exit13.i

Py_DECREF.exit13.i:                               ; preds = %10, %7, %5, %1
  %11 = getelementptr inbounds nuw i8, ptr %0, i64 24
  %12 = load ptr, ptr %11, align 8, !tbaa !20
  %.not11.i = icmp eq ptr %12, null
  br i1 %.not11.i, label %keyobject_clear.exit, label %13

13:                                               ; preds = %Py_DECREF.exit13.i
  store ptr null, ptr %11, align 8, !tbaa !20
  %14 = load i32, ptr %12, align 8, !tbaa !21
  %.not.i.i = icmp sgt i32 %14, -1
  br i1 %.not.i.i, label %15, label %keyobject_clear.exit

15:                                               ; preds = %13
  %16 = add nsw i32 %14, -1
  store i32 %16, ptr %12, align 8, !tbaa !21
  %17 = icmp eq i32 %16, 0
  br i1 %17, label %18, label %keyobject_clear.exit

18:                                               ; preds = %15
  tail call void @_Py_Dealloc(ptr noundef nonnull %12) #9
  br label %keyobject_clear.exit

keyobject_clear.exit:                             ; preds = %Py_DECREF.exit13.i, %13, %15, %18
  %19 = getelementptr inbounds nuw i8, ptr %.val, i64 320
  %20 = load ptr, ptr %19, align 8, !tbaa !121
  tail call void %20(ptr noundef nonnull %0) #9
  %21 = load i32, ptr %.val, align 8, !tbaa !21
  %.not.i = icmp sgt i32 %21, -1
  br i1 %.not.i, label %22, label %Py_DECREF.exit

22:                                               ; preds = %keyobject_clear.exit
  %23 = add nsw i32 %21, -1
  store i32 %23, ptr %.val, align 8, !tbaa !21
  %24 = icmp eq i32 %23, 0
  br i1 %24, label %25, label %Py_DECREF.exit

25:                                               ; preds = %22
  tail call void @_Py_Dealloc(ptr noundef nonnull %.val) #9
  br label %Py_DECREF.exit

Py_DECREF.exit:                                   ; preds = %keyobject_clear.exit, %22, %25
  ret void
}